target datalayout = "e-m:e-p270:32:32-p271:32:32-p272:64:64-i64:64-i128:128-f80:128-n8:16:32:64-S128"
target triple = "x86_64-pc-linux-gnu"

%struct.ec_group_st = type { ptr, ptr, ptr, ptr, i32, i32, i32, i32, ptr, i64, ptr, [6 x i32], ptr, ptr, i32, ptr, ptr, ptr, ptr, i32, %union.anon, ptr, ptr }
%union.anon = type { ptr }
%struct.ec_method_st = type { i32, i32, ptr, ptr, ptr, ptr, ptr, ptr, ptr, ptr, ptr, ptr, ptr, ptr, ptr, ptr, ptr, ptr, ptr, ptr, ptr, ptr, ptr, ptr, ptr, ptr, ptr, ptr, ptr, ptr, ptr, ptr, ptr, ptr, ptr, ptr, ptr, ptr, ptr, ptr, ptr, ptr, ptr, ptr, ptr, ptr, ptr, ptr, ptr, ptr, ptr, ptr, ptr, ptr, ptr, ptr, ptr }
%struct.ec_point_st = type { ptr, i32, ptr, ptr, ptr, i32 }

@.str = private unnamed_addr constant [30 x i8] c"../openssl/crypto/ec/ec_oct.c\00", align 1
@__func__.EC_POINT_point2oct = private unnamed_addr constant [19 x i8] c"EC_POINT_point2oct\00", align 1

; Function Attrs: inlinehint nounwind uwtable
define internal i32 @ec_point_is_compat(ptr noundef %0, ptr noundef %1) #2 {
  %3 = alloca ptr, align 8
  %4 = alloca ptr, align 8
  store ptr %0, ptr %3, align 8, !tbaa !8
  store ptr %1, ptr %4, align 8, !tbaa !3
  %5 = load ptr, ptr %4, align 8, !tbaa !3
  %6 = getelementptr inbounds nuw %struct.ec_group_st, ptr %5, i32 0, i32 0
  %7 = load ptr, ptr %6, align 8, !tbaa !16
  %8 = load ptr, ptr %3, align 8, !tbaa !8
  %9 = getelementptr inbounds nuw %struct.ec_point_st, ptr %8, i32 0, i32 0
  %10 = load ptr, ptr %9, align 8, !tbaa !27
  %11 = icmp eq ptr %7, %10
  br i1 %11, label %12, label %32

12:                                               ; preds = %2
  %13 = load ptr, ptr %4, align 8, !tbaa !3
  %14 = getelementptr inbounds nuw %struct.ec_group_st, ptr %13, i32 0, i32 4
  %15 = load i32, ptr %14, align 8, !tbaa !29
  %16 = icmp eq i32 %15, 0
  br i1 %16, label %30, label %17

17:                                               ; preds = %12
  %18 = load ptr, ptr %3, align 8, !tbaa !8
  %19 = getelementptr inbounds nuw %struct.ec_point_st, ptr %18, i32 0, i32 1
  %20 = load i32, ptr %19, align 8, !tbaa !30
  %21 = icmp eq i32 %20, 0
  br i1 %21, label %30, label %22

22:                                               ; preds = %17
  %23 = load ptr, ptr %4, align 8, !tbaa !3
  %24 = getelementptr inbounds nuw %struct.ec_group_st, ptr %23, i32 0, i32 4
  %25 = load i32, ptr %24, align 8, !tbaa !29
  %26 = load ptr, ptr %3, align 8, !tbaa !8
  %27 = getelementptr inbounds nuw %struct.ec_point_st, ptr %26, i32 0, i32 1
  %28 = load i32, ptr %27, align 8, !tbaa !30
  %29 = icmp eq i32 %25, %28
  br label %30

30:                                               ; preds = %22, %17, %12
  %31 = phi i1 [ true, %17 ], [ true, %12 ], [ %29, %22 ]
  br label %32

32:                                               ; preds = %30, %2
  %33 = phi i1 [ false, %2 ], [ %31, %30 ]
  %34 = zext i1 %33 to i32
  ret i32 %34
}

; Function Attrs: nounwind uwtable
define i64 @EC_POINT_point2oct(ptr noundef %0, ptr noundef %1, i32 noundef %2, ptr noundef %3, i64 noundef %4, ptr noundef %5) #0 {
  %7 = alloca i64, align 8
  %8 = alloca ptr, align 8
  %9 = alloca ptr, align 8
  %10 = alloca i32, align 4
  %11 = alloca ptr, align 8
  %12 = alloca i64, align 8
  %13 = alloca ptr, align 8
  store ptr %0, ptr %8, align 8, !tbaa !3
  store ptr %1, ptr %9, align 8, !tbaa !8
  store i32 %2, ptr %10, align 4, !tbaa !12
  store ptr %3, ptr %11, align 8, !tbaa !31
  store i64 %4, ptr %12, align 8, !tbaa !32
  store ptr %5, ptr %13, align 8, !tbaa !14
  %14 = load ptr, ptr %9, align 8, !tbaa !8
  %15 = icmp eq ptr %14, null
  br i1 %15, label %16, label %17

16:                                               ; preds = %6
  call void @ERR_new()
  call void @ERR_set_debug(ptr noundef @.str, i32 noundef 78, ptr noundef @__func__.EC_POINT_point2oct)
  call void (i32, i32, ptr, ...) @ERR_set_error(i32 noundef 16, i32 noundef 786690, ptr noundef null)
  store i64 0, ptr %7, align 8
  br label %83

17:                                               ; preds = %6
  %18 = load ptr, ptr %8, align 8, !tbaa !3
  %19 = getelementptr inbounds nuw %struct.ec_group_st, ptr %18, i32 0, i32 0
  %20 = load ptr, ptr %19, align 8, !tbaa !16
  %21 = getelementptr inbounds nuw %struct.ec_method_st, ptr %20, i32 0, i32 19
  %22 = load ptr, ptr %21, align 8, !tbaa !33
  %23 = icmp eq ptr %22, null
  br i1 %23, label %24, label %33

24:                                               ; preds = %17
  %25 = load ptr, ptr %8, align 8, !tbaa !3
  %26 = getelementptr inbounds nuw %struct.ec_group_st, ptr %25, i32 0, i32 0
  %27 = load ptr, ptr %26, align 8, !tbaa !16
  %28 = getelementptr inbounds nuw %struct.ec_method_st, ptr %27, i32 0, i32 0
  %29 = load i32, ptr %28, align 8, !tbaa !25
  %30 = and i32 %29, 1
  %31 = icmp ne i32 %30, 0
  br i1 %31, label %33, label %32

32:                                               ; preds = %24
  call void @ERR_new()
  call void @ERR_set_debug(ptr noundef @.str, i32 noundef 83, ptr noundef @__func__.EC_POINT_point2oct)
  call void (i32, i32, ptr, ...) @ERR_set_error(i32 noundef 16, i32 noundef 786689, ptr noundef null)
  store i64 0, ptr %7, align 8
  br label %83

33:                                               ; preds = %24, %17
  %34 = load ptr, ptr %9, align 8, !tbaa !8
  %35 = load ptr, ptr %8, align 8, !tbaa !3
  %36 = call i32 @ec_point_is_compat(ptr noundef %34, ptr noundef %35)
  %37 = icmp ne i32 %36, 0
  br i1 %37, label %39, label %38

38:                                               ; preds = %33
  call void @ERR_new()
  call void @ERR_set_debug(ptr noundef @.str, i32 noundef 87, ptr noundef @__func__.EC_POINT_point2oct)
  call void (i32, i32, ptr, ...) @ERR_set_error(i32 noundef 16, i32 noundef 101, ptr noundef null)
  store i64 0, ptr %7, align 8
  br label %83

39:                                               ; preds = %33
  %40 = load ptr, ptr %8, align 8, !tbaa !3
  %41 = getelementptr inbounds nuw %struct.ec_group_st, ptr %40, i32 0, i32 0
  %42 = load ptr, ptr %41, align 8, !tbaa !16
  %43 = getelementptr inbounds nuw %struct.ec_method_st, ptr %42, i32 0, i32 0
  %44 = load i32, ptr %43, align 8, !tbaa !25
  %45 = and i32 %44, 1
  %46 = icmp ne i32 %45, 0
  br i1 %46, label %47, label %70

47:                                               ; preds = %39
  %48 = load ptr, ptr %8, align 8, !tbaa !3
  %49 = getelementptr inbounds nuw %struct.ec_group_st, ptr %48, i32 0, i32 0
  %50 = load ptr, ptr %49, align 8, !tbaa !16
  %51 = getelementptr inbounds nuw %struct.ec_method_st, ptr %50, i32 0, i32 1
  %52 = load i32, ptr %51, align 4, !tbaa !26
  %53 = icmp eq i32 %52, 406
  br i1 %53, label %54, label %62

54:                                               ; preds = %47
  %55 = load ptr, ptr %8, align 8, !tbaa !3
  %56 = load ptr, ptr %9, align 8, !tbaa !8
  %57 = load i32, ptr %10, align 4, !tbaa !12
  %58 = load ptr, ptr %11, align 8, !tbaa !31
  %59 = load i64, ptr %12, align 8, !tbaa !32
  %60 = load ptr, ptr %13, align 8, !tbaa !14
  %61 = call i64 @ossl_ec_GFp_simple_point2oct(ptr noundef %55, ptr noundef %56, i32 noundef %57, ptr noundef %58, i64 noundef %59, ptr noundef %60)
  store i64 %61, ptr %7, align 8
  br label %83

62:                                               ; preds = %47
  %63 = load ptr, ptr %8, align 8, !tbaa !3
  %64 = load ptr, ptr %9, align 8, !tbaa !8
  %65 = load i32, ptr %10, align 4, !tbaa !12
  %66 = load ptr, ptr %11, align 8, !tbaa !31
  %67 = load i64, ptr %12, align 8, !tbaa !32
  %68 = load ptr, ptr %13, align 8, !tbaa !14
  %69 = call i64 @ossl_ec_GF2m_simple_point2oct(ptr noundef %63, ptr noundef %64, i32 noundef %65, ptr noundef %66, i64 noundef %67, ptr noundef %68)
  store i64 %69, ptr %7, align 8
  br label %83

70:                                               ; preds = %39
  %71 = load ptr, ptr %8, align 8, !tbaa !3
  %72 = getelementptr inbounds nuw %struct.ec_group_st, ptr %71, i32 0, i32 0
  %73 = load ptr, ptr %72, align 8, !tbaa !16
  %74 = getelementptr inbounds nuw %struct.ec_method_st, ptr %73, i32 0, i32 19
  %75 = load ptr, ptr %74, align 8, !tbaa !33
  %76 = load ptr, ptr %8, align 8, !tbaa !3
  %77 = load ptr, ptr %9, align 8, !tbaa !8
  %78 = load i32, ptr %10, align 4, !tbaa !12
  %79 = load ptr, ptr %11, align 8, !tbaa !31
  %80 = load i64, ptr %12, align 8, !tbaa !32
  %81 = load ptr, ptr %13, align 8, !tbaa !14
  %82 = call i64 %75(ptr noundef %76, ptr noundef %77, i32 noundef %78, ptr noundef %79, i64 noundef %80, ptr noundef %81)
  store i64 %82, ptr %7, align 8
  br label %83

83:                                               ; preds = %70, %62, %54, %38, %32, %16
  %84 = load i64, ptr %7, align 8
  ret i64 %84
}