; Function Attrs: nounwind uwtable
define i64 @EC_POINT_point2oct(ptr noundef %0, ptr noundef %1, i32 noundef %2, ptr noundef %3, i64 noundef %4, ptr noundef %5) local_unnamed_addr #0 {
  %7 = icmp eq ptr %1, null
  br i1 %7, label %8, label %9

8:                                                ; preds = %6
  tail call void @ERR_new() #2
  tail call void @ERR_set_debug(ptr noundef nonnull @.str, i32 noundef 78, ptr noundef nonnull @__func__.EC_POINT_point2oct) #2
  tail call void (i32, i32, ptr, ...) @ERR_set_error(i32 noundef 16, i32 noundef 786690, ptr noundef null) #2
  br label %41

9:                                                ; preds = %6
  %10 = load ptr, ptr %0, align 8, !tbaa !3
  %11 = getelementptr inbounds nuw i8, ptr %10, i64 144
  %12 = load ptr, ptr %11, align 8, !tbaa !24
  %13 = icmp eq ptr %12, null
  br i1 %13, label %14, label %18

14:                                               ; preds = %9
  %15 = load i32, ptr %10, align 8, !tbaa !18
  %16 = and i32 %15, 1
  %.not = icmp eq i32 %16, 0
  br i1 %.not, label %17, label %18

17:                                               ; preds = %14
  tail call void @ERR_new() #2
  tail call void @ERR_set_debug(ptr noundef nonnull @.str, i32 noundef 83, ptr noundef nonnull @__func__.EC_POINT_point2oct) #2
  tail call void (i32, i32, ptr, ...) @ERR_set_error(i32 noundef 16, i32 noundef 786689, ptr noundef null) #2
  br label %41

18:                                               ; preds = %14, %9
  %19 = load ptr, ptr %1, align 8, !tbaa !19
  %20 = icmp eq ptr %10, %19
  br i1 %20, label %21, label %ec_point_is_compat.exit.thread30

21:                                               ; preds = %18
  %22 = getelementptr inbounds nuw i8, ptr %0, i64 32
  %23 = load i32, ptr %22, align 8, !tbaa !21
  %24 = icmp eq i32 %23, 0
  br i1 %24, label %ec_point_is_compat.exit.thread, label %25

25:                                               ; preds = %21
  %26 = getelementptr inbounds nuw i8, ptr %1, i64 8
  %27 = load i32, ptr %26, align 8, !tbaa !22
  %28 = icmp eq i32 %27, 0
  %.not32 = icmp eq i32 %23, %27
  %or.cond = or i1 %28, %.not32
  br i1 %or.cond, label %ec_point_is_compat.exit.thread, label %ec_point_is_compat.exit.thread30

ec_point_is_compat.exit.thread30:                 ; preds = %25, %18
  tail call void @ERR_new() #2
  tail call void @ERR_set_debug(ptr noundef nonnull @.str, i32 noundef 87, ptr noundef nonnull @__func__.EC_POINT_point2oct) #2
  tail call void (i32, i32, ptr, ...) @ERR_set_error(i32 noundef 16, i32 noundef 101, ptr noundef null) #2
  br label %41

ec_point_is_compat.exit.thread:                   ; preds = %21, %25
  %29 = load i32, ptr %10, align 8, !tbaa !18
  %30 = and i32 %29, 1
  %.not28 = icmp eq i32 %30, 0
  br i1 %.not28, label %39, label %31

31:                                               ; preds = %ec_point_is_compat.exit.thread
  %32 = getelementptr inbounds nuw i8, ptr %10, i64 4
  %33 = load i32, ptr %32, align 4, !tbaa !23
  %34 = icmp eq i32 %33, 406
  br i1 %34, label %35, label %37

35:                                               ; preds = %31
  %36 = tail call i64 @ossl_ec_GFp_simple_point2oct(ptr noundef nonnull %0, ptr noundef nonnull %1, i32 noundef %2, ptr noundef %3, i64 noundef %4, ptr noundef %5) #2
  br label %41

37:                                               ; preds = %31
  %38 = tail call i64 @ossl_ec_GF2m_simple_point2oct(ptr noundef nonnull %0, ptr noundef nonnull %1, i32 noundef %2, ptr noundef %3, i64 noundef %4, ptr noundef %5) #2
  br label %41

39:                                               ; preds = %ec_point_is_compat.exit.thread
  %40 = tail call i64 %12(ptr noundef nonnull %0, ptr noundef nonnull %1, i32 noundef %2, ptr noundef %3, i64 noundef %4, ptr noundef %5) #2
  br label %41

41:                                               ; preds = %39, %37, %35, %ec_point_is_compat.exit.thread30, %17, %8
  %.0 = phi i64 [ 0, %8 ], [ %36, %35 ], [ %38, %37 ], [ %40, %39 ], [ 0, %ec_point_is_compat.exit.thread30 ], [ 0, %17 ]
  ret i64 %.0
}